
ds1307.elf:     file format elf32-avr

Sections:
Idx Name          Size      VMA       LMA       File off  Algn
  0 .text         000000ae  00000000  00000000  000000d4  2**1
                  CONTENTS, ALLOC, LOAD, READONLY, CODE
  1 .data         00000000  00800060  000000ae  00000226  2**0
                  ALLOC
  2 .bss          00000003  00800060  00800060  000003f2  2**0
                  ALLOC
  3 .comment      0000002f  00000000  00000000  000003f2  2**0
                  CONTENTS, READONLY
  4 .stack.descriptors.hdr 0000000e  00000000  00000000  00000421  2**0
                  CONTENTS, READONLY
  5 .debug_aranges 000000b8  00000000  00000000  0000042f  2**0
                  CONTENTS, READONLY, DEBUGGING
  6 .debug_info   000012a6  00000000  00000000  000004e7  2**0
                  CONTENTS, READONLY, DEBUGGING
  7 .debug_abbrev 000007c2  00000000  00000000  0000178d  2**0
                  CONTENTS, READONLY, DEBUGGING
  8 .debug_line   000005f8  00000000  00000000  00001f4f  2**0
                  CONTENTS, READONLY, DEBUGGING
  9 .debug_frame  00000158  00000000  00000000  00002548  2**2
                  CONTENTS, READONLY, DEBUGGING
 10 .debug_str    000001de  00000000  00000000  000026a0  2**0
                  CONTENTS, READONLY, DEBUGGING
 11 .debug_loc    000005fc  00000000  00000000  0000287e  2**0
                  CONTENTS, READONLY, DEBUGGING
 12 .debug_ranges 00000098  00000000  00000000  00002e7a  2**0
                  CONTENTS, READONLY, DEBUGGING
 13 .text         00000004  00000310  00000310  000003e4  2**1
                  CONTENTS, ALLOC, LOAD, READONLY, CODE
 14 .note.gnu.avr.deviceinfo 0000003c  00000000  00000000  00002f14  2**2
                  CONTENTS, READONLY, DEBUGGING
 15 .text.sendbyte 0000002e  0000021a  0000021a  000002ee  2**1
                  CONTENTS, ALLOC, LOAD, READONLY, CODE
 16 .text.send    0000002a  00000248  00000248  0000031c  2**1
                  CONTENTS, ALLOC, LOAD, READONLY, CODE
 17 .text.LCD_ini 00000092  00000152  00000152  00000226  2**1
                  CONTENTS, ALLOC, LOAD, READONLY, CODE
 18 .text.sendchar 00000014  0000029e  0000029e  00000372  2**1
                  CONTENTS, ALLOC, LOAD, READONLY, CODE
 19 .text.setpos  00000012  000002b2  000002b2  00000386  2**1
                  CONTENTS, ALLOC, LOAD, READONLY, CODE
 20 .text.i2c_init 00000006  00000304  00000304  000003d8  2**1
                  CONTENTS, ALLOC, LOAD, READONLY, CODE
 21 .text.i2c_start 0000000c  000002ee  000002ee  000003c2  2**1
                  CONTENTS, ALLOC, LOAD, READONLY, CODE
 22 .text.i2c_stop 00000006  0000030a  0000030a  000003de  2**1
                  CONTENTS, ALLOC, LOAD, READONLY, CODE
 23 .text.i2c_send 0000000e  000002c4  000002c4  00000398  2**1
                  CONTENTS, ALLOC, LOAD, READONLY, CODE
 24 .text.iniport 0000000a  000002fa  000002fa  000003ce  2**1
                  CONTENTS, ALLOC, LOAD, READONLY, CODE
 25 .text.DecBin  00000016  00000272  00000272  00000346  2**1
                  CONTENTS, ALLOC, LOAD, READONLY, CODE
 26 .text.i2c_read 0000000e  000002d2  000002d2  000003a6  2**1
                  CONTENTS, ALLOC, LOAD, READONLY, CODE
 27 .text.i2c_read_lastbyte 0000000e  000002e0  000002e0  000003b4  2**1
                  CONTENTS, ALLOC, LOAD, READONLY, CODE
 28 .text.lcd_print_number 00000036  000001e4  000001e4  000002b8  2**1
                  CONTENTS, ALLOC, LOAD, READONLY, CODE
 29 .text.main    000000a4  000000ae  000000ae  00000182  2**1
                  CONTENTS, ALLOC, LOAD, READONLY, CODE
 30 .text.__dummy_fini 00000002  00000318  00000318  000003ec  2**1
                  CONTENTS, ALLOC, LOAD, READONLY, CODE
 31 .text.__dummy_funcs_on_exit 00000002  0000031a  0000031a  000003ee  2**1
                  CONTENTS, ALLOC, LOAD, READONLY, CODE
 32 .text.__dummy_simulator_exit 00000002  0000031c  0000031c  000003f0  2**1
                  CONTENTS, ALLOC, LOAD, READONLY, CODE
 33 .text.exit    00000016  00000288  00000288  0000035c  2**1
                  CONTENTS, ALLOC, LOAD, READONLY, CODE
 34 .text._Exit   00000004  00000314  00000314  000003e8  2**1
                  CONTENTS, ALLOC, LOAD, READONLY, CODE

Disassembly of section .text:

00000000 <__vectors>:
   0:	0c 94 2d 00 	jmp	0x5a	; 0x5a <__ctors_end>
   4:	0c 94 88 01 	jmp	0x310	; 0x310 <__bad_interrupt>
   8:	0c 94 88 01 	jmp	0x310	; 0x310 <__bad_interrupt>
   c:	0c 94 88 01 	jmp	0x310	; 0x310 <__bad_interrupt>
  10:	0c 94 88 01 	jmp	0x310	; 0x310 <__bad_interrupt>
  14:	0c 94 88 01 	jmp	0x310	; 0x310 <__bad_interrupt>
  18:	0c 94 88 01 	jmp	0x310	; 0x310 <__bad_interrupt>
  1c:	0c 94 88 01 	jmp	0x310	; 0x310 <__bad_interrupt>
  20:	0c 94 88 01 	jmp	0x310	; 0x310 <__bad_interrupt>
  24:	0c 94 88 01 	jmp	0x310	; 0x310 <__bad_interrupt>
  28:	0c 94 88 01 	jmp	0x310	; 0x310 <__bad_interrupt>
  2c:	0c 94 88 01 	jmp	0x310	; 0x310 <__bad_interrupt>
  30:	0c 94 88 01 	jmp	0x310	; 0x310 <__bad_interrupt>
  34:	0c 94 88 01 	jmp	0x310	; 0x310 <__bad_interrupt>
  38:	0c 94 88 01 	jmp	0x310	; 0x310 <__bad_interrupt>
  3c:	0c 94 88 01 	jmp	0x310	; 0x310 <__bad_interrupt>
  40:	0c 94 88 01 	jmp	0x310	; 0x310 <__bad_interrupt>
  44:	0c 94 88 01 	jmp	0x310	; 0x310 <__bad_interrupt>
  48:	0c 94 88 01 	jmp	0x310	; 0x310 <__bad_interrupt>
  4c:	0c 94 88 01 	jmp	0x310	; 0x310 <__bad_interrupt>
  50:	0c 94 88 01 	jmp	0x310	; 0x310 <__bad_interrupt>

00000054 <.dinit>:
  54:	00 60       	ori	r16, 0x00	; 0
  56:	00 63       	ori	r16, 0x30	; 48
  58:	80 00       	.word	0x0080	; ????

0000005a <__ctors_end>:
  5a:	11 24       	eor	r1, r1
  5c:	1f be       	out	0x3f, r1	; 63
  5e:	cf e5       	ldi	r28, 0x5F	; 95
  60:	d4 e0       	ldi	r29, 0x04	; 4
  62:	de bf       	out	0x3e, r29	; 62
  64:	cd bf       	out	0x3d, r28	; 61

00000066 <__do_copy_data>:
  66:	e4 e5       	ldi	r30, 0x54	; 84
  68:	f0 e0       	ldi	r31, 0x00	; 0
  6a:	40 e0       	ldi	r20, 0x00	; 0
  6c:	17 c0       	rjmp	.+46     	; 0x9c <__do_clear_bss+0x8>
  6e:	b5 91       	lpm	r27, Z+
  70:	a5 91       	lpm	r26, Z+
  72:	35 91       	lpm	r19, Z+
  74:	25 91       	lpm	r18, Z+
  76:	05 91       	lpm	r16, Z+
  78:	07 fd       	sbrc	r16, 7
  7a:	0c c0       	rjmp	.+24     	; 0x94 <__do_clear_bss>
  7c:	95 91       	lpm	r25, Z+
  7e:	85 91       	lpm	r24, Z+
  80:	ef 01       	movw	r28, r30
  82:	f9 2f       	mov	r31, r25
  84:	e8 2f       	mov	r30, r24
  86:	05 90       	lpm	r0, Z+
  88:	0d 92       	st	X+, r0
  8a:	a2 17       	cp	r26, r18
  8c:	b3 07       	cpc	r27, r19
  8e:	d9 f7       	brne	.-10     	; 0x86 <__do_copy_data+0x20>
  90:	fe 01       	movw	r30, r28
  92:	04 c0       	rjmp	.+8      	; 0x9c <__do_clear_bss+0x8>

00000094 <__do_clear_bss>:
  94:	1d 92       	st	X+, r1
  96:	a2 17       	cp	r26, r18
  98:	b3 07       	cpc	r27, r19
  9a:	e1 f7       	brne	.-8      	; 0x94 <__do_clear_bss>
  9c:	e9 35       	cpi	r30, 0x59	; 89
  9e:	f4 07       	cpc	r31, r20
  a0:	31 f7       	brne	.-52     	; 0x6e <__do_copy_data+0x8>
  a2:	0e 94 57 00 	call	0xae	; 0xae <_etext>
  a6:	0c 94 44 01 	jmp	0x288	; 0x288 <exit>

000000aa <_exit>:
  aa:	f8 94       	cli

000000ac <__stop_program>:
  ac:	ff cf       	rjmp	.-2      	; 0xac <__stop_program>

Disassembly of section .text:

00000310 <__bad_interrupt>:
 310:	0c 94 00 00 	jmp	0	; 0x0 <__vectors>

Disassembly of section .text.sendbyte:

0000021a <sendbyte>:

}

void sendbyte(unsigned char c) // РѕС‚РїСЂР°РІРєР° Р±Р°Р№С‚Р°
{
	  c<<=4; // СЃРґРІРёРіР°РµРј Р±Р°Р№С‚ РјР»Р°РґС€РµР№ С‚РµС‚СЂР°РґРѕР№ Рє СЃС‚Р°СЂС€РµР№
 21a:	82 95       	swap	r24
 21c:	80 7f       	andi	r24, 0xF0	; 240

	 E1;
 21e:	9b b3       	in	r25, 0x1b	; 27
 220:	98 60       	ori	r25, 0x08	; 8
 222:	9b bb       	out	0x1b, r25	; 27
	#else
		//round up by default
		__ticks_dc = (uint32_t)(ceil(fabs(__tmp)));
	#endif

	__builtin_avr_delay_cycles(__ticks_dc);
 224:	95 e8       	ldi	r25, 0x85	; 133
 226:	9a 95       	dec	r25
 228:	f1 f7       	brne	.-4      	; 0x226 <sendbyte+0xc>
 22a:	00 00       	nop
	
	_delay_us(50);
		
	PORTA &= 0b00001111; /*РѕС‚С‡РёСЃС‚РєР° СЃС‚Р°СЂС€РµР№ С‚РµС‚СЂР°РґС‹ Р” РїРѕСЂС‚Р°*/ 
 22c:	9b b3       	in	r25, 0x1b	; 27
 22e:	9f 70       	andi	r25, 0x0F	; 15
 230:	9b bb       	out	0x1b, r25	; 27
	PORTA  |= c; /*РѕС‚РїСЂР°РІР»СЏРµРј СЃС‚Р°СЂС€СѓСЋ С‚РµС‚СЂР°РґСѓ*/
 232:	9b b3       	in	r25, 0x1b	; 27
 234:	89 2b       	or	r24, r25
 236:	8b bb       	out	0x1b, r24	; 27
	
	 E0;	
 238:	8b b3       	in	r24, 0x1b	; 27
 23a:	87 7f       	andi	r24, 0xF7	; 247
 23c:	8b bb       	out	0x1b, r24	; 27
 23e:	85 e8       	ldi	r24, 0x85	; 133
 240:	8a 95       	dec	r24
 242:	f1 f7       	brne	.-4      	; 0x240 <sendbyte+0x26>
 244:	00 00       	nop
 246:	08 95       	ret

Disassembly of section .text.send:

00000248 <send>:
		_delay_us(50);
		
	}

void send(unsigned char c,unsigned char mode)
{
 248:	cf 93       	push	r28
 24a:	c8 2f       	mov	r28, r24
	if (mode ==0) 
 24c:	61 11       	cpse	r22, r1
 24e:	04 c0       	rjmp	.+8      	; 0x258 <send+0x10>
	{ RS0; // РєРѕРјР°РЅРґР° 0
 250:	8b b3       	in	r24, 0x1b	; 27
 252:	8d 7f       	andi	r24, 0xFD	; 253
 254:	8b bb       	out	0x1b, r24	; 27
 256:	03 c0       	rjmp	.+6      	; 0x25e <send+0x16>
	} 
	else
	{ RS1; // РґР°РЅРЅС‹Рµ 1
 258:	8b b3       	in	r24, 0x1b	; 27
 25a:	82 60       	ori	r24, 0x02	; 2
 25c:	8b bb       	out	0x1b, r24	; 27
	}
	
	unsigned char hc=0;
	hc = c >> 4;

sendbyte(hc); // СЃС‚Р°СЂС€РёР№ РїРѕР»СѓР±Р°Р№С‚
 25e:	8c 2f       	mov	r24, r28
 260:	82 95       	swap	r24
 262:	8f 70       	andi	r24, 0x0F	; 15
 264:	0e 94 0d 01 	call	0x21a	; 0x21a <sendbyte>
sendbyte(c);	// РјР»Р°РґС€РёР№  РїРѕР»СѓР±Р°Р№С‚
 268:	8c 2f       	mov	r24, r28
 26a:	0e 94 0d 01 	call	0x21a	; 0x21a <sendbyte>
}
 26e:	cf 91       	pop	r28
 270:	08 95       	ret

Disassembly of section .text.LCD_ini:

00000152 <LCD_ini>:
	#else
		//round up by default
		__ticks_dc = (uint32_t)(ceil(fabs(__tmp)));
	#endif

	__builtin_avr_delay_cycles(__ticks_dc);
 152:	8f e2       	ldi	r24, 0x2F	; 47
 154:	95 e7       	ldi	r25, 0x75	; 117
 156:	01 97       	sbiw	r24, 0x01	; 1
 158:	f1 f7       	brne	.-4      	; 0x156 <LCD_ini+0x4>
 15a:	00 c0       	rjmp	.+0      	; 0x15c <LCD_ini+0xa>
 15c:	00 00       	nop


void LCD_ini(void)
{
_delay_ms(15);
sendbyte(0b00000011);  // 11 РІРєР»СЋС‡Р°РµС‚ 4 Р±РёС‚РЅС‹Р№ СЂРµР¶РёРј
 15e:	83 e0       	ldi	r24, 0x03	; 3
 160:	0e 94 0d 01 	call	0x21a	; 0x21a <sendbyte>
 164:	8f e3       	ldi	r24, 0x3F	; 63
 166:	9f e1       	ldi	r25, 0x1F	; 31
 168:	01 97       	sbiw	r24, 0x01	; 1
 16a:	f1 f7       	brne	.-4      	; 0x168 <LCD_ini+0x16>
 16c:	00 c0       	rjmp	.+0      	; 0x16e <LCD_ini+0x1c>
 16e:	00 00       	nop
_delay_ms(4);
sendbyte(0b00000011);
 170:	83 e0       	ldi	r24, 0x03	; 3
 172:	0e 94 0d 01 	call	0x21a	; 0x21a <sendbyte>
	#else
		//round up by default
		__ticks_dc = (uint32_t)(ceil(fabs(__tmp)));
	#endif

	__builtin_avr_delay_cycles(__ticks_dc);
 176:	87 ec       	ldi	r24, 0xC7	; 199
 178:	90 e0       	ldi	r25, 0x00	; 0
 17a:	01 97       	sbiw	r24, 0x01	; 1
 17c:	f1 f7       	brne	.-4      	; 0x17a <LCD_ini+0x28>
 17e:	00 c0       	rjmp	.+0      	; 0x180 <LCD_ini+0x2e>
 180:	00 00       	nop
_delay_us(100);
sendbyte(0b00000011);
 182:	83 e0       	ldi	r24, 0x03	; 3
 184:	0e 94 0d 01 	call	0x21a	; 0x21a <sendbyte>
	#else
		//round up by default
		__ticks_dc = (uint32_t)(ceil(fabs(__tmp)));
	#endif

	__builtin_avr_delay_cycles(__ticks_dc);
 188:	8f ec       	ldi	r24, 0xCF	; 207
 18a:	97 e0       	ldi	r25, 0x07	; 7
 18c:	01 97       	sbiw	r24, 0x01	; 1
 18e:	f1 f7       	brne	.-4      	; 0x18c <LCD_ini+0x3a>
 190:	00 c0       	rjmp	.+0      	; 0x192 <LCD_ini+0x40>
 192:	00 00       	nop
_delay_ms(1);
sendbyte(0b00000010);
 194:	82 e0       	ldi	r24, 0x02	; 2
 196:	0e 94 0d 01 	call	0x21a	; 0x21a <sendbyte>
 19a:	8f ec       	ldi	r24, 0xCF	; 207
 19c:	97 e0       	ldi	r25, 0x07	; 7
 19e:	01 97       	sbiw	r24, 0x01	; 1
 1a0:	f1 f7       	brne	.-4      	; 0x19e <LCD_ini+0x4c>
 1a2:	00 c0       	rjmp	.+0      	; 0x1a4 <LCD_ini+0x52>
 1a4:	00 00       	nop
_delay_ms(1);


	send(0b00101000, 0); // РѕС‚РїСЂР°РІРєР° РєРѕРјР°РЅРґ
 1a6:	60 e0       	ldi	r22, 0x00	; 0
 1a8:	88 e2       	ldi	r24, 0x28	; 40
 1aa:	0e 94 24 01 	call	0x248	; 0x248 <send>
 1ae:	8f ec       	ldi	r24, 0xCF	; 207
 1b0:	97 e0       	ldi	r25, 0x07	; 7
 1b2:	01 97       	sbiw	r24, 0x01	; 1
 1b4:	f1 f7       	brne	.-4      	; 0x1b2 <LCD_ini+0x60>
 1b6:	00 c0       	rjmp	.+0      	; 0x1b8 <LCD_ini+0x66>
 1b8:	00 00       	nop

_delay_ms(1);

	send(0b00001100, 0);
 1ba:	60 e0       	ldi	r22, 0x00	; 0
 1bc:	8c e0       	ldi	r24, 0x0C	; 12
 1be:	0e 94 24 01 	call	0x248	; 0x248 <send>
 1c2:	8f ec       	ldi	r24, 0xCF	; 207
 1c4:	97 e0       	ldi	r25, 0x07	; 7
 1c6:	01 97       	sbiw	r24, 0x01	; 1
 1c8:	f1 f7       	brne	.-4      	; 0x1c6 <LCD_ini+0x74>
 1ca:	00 c0       	rjmp	.+0      	; 0x1cc <LCD_ini+0x7a>
 1cc:	00 00       	nop
	
_delay_ms(1);

	send(0b00000110, 0);
 1ce:	60 e0       	ldi	r22, 0x00	; 0
 1d0:	86 e0       	ldi	r24, 0x06	; 6
 1d2:	0e 94 24 01 	call	0x248	; 0x248 <send>
 1d6:	8f ec       	ldi	r24, 0xCF	; 207
 1d8:	97 e0       	ldi	r25, 0x07	; 7
 1da:	01 97       	sbiw	r24, 0x01	; 1
 1dc:	f1 f7       	brne	.-4      	; 0x1da <LCD_ini+0x88>
 1de:	00 c0       	rjmp	.+0      	; 0x1e0 <LCD_ini+0x8e>
 1e0:	00 00       	nop
 1e2:	08 95       	ret

Disassembly of section .text.sendchar:

0000029e <sendchar>:
}

void sendchar(unsigned char c) // РѕС‚РїСЂР°РІРєР° 1 СЃРёРјРІРѕР»Р°
{

	send(c,1);
 29e:	61 e0       	ldi	r22, 0x01	; 1
 2a0:	0e 94 24 01 	call	0x248	; 0x248 <send>
 2a4:	8f e1       	ldi	r24, 0x1F	; 31
 2a6:	9e e4       	ldi	r25, 0x4E	; 78
 2a8:	01 97       	sbiw	r24, 0x01	; 1
 2aa:	f1 f7       	brne	.-4      	; 0x2a8 <sendchar+0xa>
 2ac:	00 c0       	rjmp	.+0      	; 0x2ae <sendchar+0x10>
 2ae:	00 00       	nop
 2b0:	08 95       	ret

Disassembly of section .text.setpos:

000002b2 <setpos>:

{

	char adress;

	adress=(0x40*y+x)|0b10000000; // Р°РґСЂРµСЃР° СЃРёРјРІРѕР»РѕРІ 2РѕР№ СЃС‚СЂРѕРєРё РёРґСѓС‚ РѕС‚ 40, 8Р№ Р±РёС‚ РїРµСЂРµРґР°РµС‚ РєРѕРјР°РЅРґСѓ СѓСЃС‚Р°РЅРѕРІРєРё РїРѕР·РёС†РёРё
 2b2:	90 e4       	ldi	r25, 0x40	; 64
 2b4:	69 9f       	mul	r22, r25
 2b6:	80 0d       	add	r24, r0
 2b8:	11 24       	eor	r1, r1

	send(adress, 0);
 2ba:	60 e0       	ldi	r22, 0x00	; 0
 2bc:	80 68       	ori	r24, 0x80	; 128
 2be:	0e 94 24 01 	call	0x248	; 0x248 <send>
 2c2:	08 95       	ret

Disassembly of section .text.i2c_init:

00000304 <i2c_init>:
unsigned char hour,min,sec;


void i2c_init(void)
{
	TWBR = 0x20; //десятичное  32-  частота 10kHZ при тактировании 8 мГц
 304:	80 e2       	ldi	r24, 0x20	; 32
 306:	80 b9       	out	0x00, r24	; 0
 308:	08 95       	ret

Disassembly of section .text.i2c_start:

000002ee <i2c_start>:
}

void i2c_start(void) // старт и2с
{
	TWCR =(1<<TWINT)|(1<<TWSTA)|(1<<TWEN);// Interrput \ start \ enable
 2ee:	84 ea       	ldi	r24, 0xA4	; 164
 2f0:	86 bf       	out	0x36, r24	; 54
	while(!(TWCR&(1<<TWINT))); // ждем твин в нуле - задание оконченно пока 1 - работа
 2f2:	06 b6       	in	r0, 0x36	; 54
 2f4:	07 fe       	sbrs	r0, 7
 2f6:	fd cf       	rjmp	.-6      	; 0x2f2 <i2c_start+0x4>
}
 2f8:	08 95       	ret

Disassembly of section .text.i2c_stop:

0000030a <i2c_stop>:

void i2c_stop(void) // stop i2c
{
	TWCR =(1<<TWINT)|(1<<TWSTO)|(1<<TWEN); // в бит стоп 1
 30a:	84 e9       	ldi	r24, 0x94	; 148
 30c:	86 bf       	out	0x36, r24	; 54
 30e:	08 95       	ret

Disassembly of section .text.i2c_send:

000002c4 <i2c_send>:
}
void i2c_send(unsigned char data)
{
	TWDR = data;// запись данных в регистр данных
 2c4:	83 b9       	out	0x03, r24	; 3
	TWCR=(1<<TWINT)|(1<<TWEN);//вкл передача
 2c6:	84 e8       	ldi	r24, 0x84	; 132
 2c8:	86 bf       	out	0x36, r24	; 54
	while(!(TWCR&(1<<TWINT))); // twint ждем в нуле
 2ca:	06 b6       	in	r0, 0x36	; 54
 2cc:	07 fe       	sbrs	r0, 7
 2ce:	fd cf       	rjmp	.-6      	; 0x2ca <i2c_send+0x6>
}
 2d0:	08 95       	ret

Disassembly of section .text.iniport:

000002fa <iniport>:

void iniport(void)
{
	DDRA=0xFF;
 2fa:	8f ef       	ldi	r24, 0xFF	; 255
 2fc:	8a bb       	out	0x1a, r24	; 26
	PORTA=0x01;
 2fe:	81 e0       	ldi	r24, 0x01	; 1
 300:	8b bb       	out	0x1b, r24	; 27
 302:	08 95       	ret

Disassembly of section .text.DecBin:

00000272 <DecBin>:
	return chout;
}

unsigned char DecBin(unsigned char chin) //  десятичный to bin
{
	unsigned char chout = ((chin >> 4 )*10) + (0b00001111 & chin);
 272:	98 2f       	mov	r25, r24
 274:	92 95       	swap	r25
 276:	9f 70       	andi	r25, 0x0F	; 15
 278:	99 0f       	add	r25, r25
 27a:	29 2f       	mov	r18, r25
 27c:	22 0f       	add	r18, r18
 27e:	22 0f       	add	r18, r18
 280:	92 0f       	add	r25, r18
 282:	8f 70       	andi	r24, 0x0F	; 15
	
	return chout;
}
 284:	89 0f       	add	r24, r25
 286:	08 95       	ret

Disassembly of section .text.i2c_read:

000002d2 <i2c_read>:


unsigned char i2c_read(void) // чтение 
{
	TWCR=(1<<TWINT)|(1<<TWEN)|(1<<TWEA);//twea - ведомый подтверждает
 2d2:	84 ec       	ldi	r24, 0xC4	; 196
 2d4:	86 bf       	out	0x36, r24	; 54
	while(!(TWCR&(1<<TWINT))); // twint ждем в нуле
 2d6:	06 b6       	in	r0, 0x36	; 54
 2d8:	07 fe       	sbrs	r0, 7
 2da:	fd cf       	rjmp	.-6      	; 0x2d6 <i2c_read+0x4>
	return TWDR;
 2dc:	83 b1       	in	r24, 0x03	; 3
}
 2de:	08 95       	ret

Disassembly of section .text.i2c_read_lastbyte:

000002e0 <i2c_read_lastbyte>:

unsigned char i2c_read_lastbyte(void) // чтение последнего байт
{
	TWCR=(1<<TWINT)|(1<<TWEN);//twea - ведомый подтверждает
 2e0:	84 e8       	ldi	r24, 0x84	; 132
 2e2:	86 bf       	out	0x36, r24	; 54
	while(!(TWCR&(1<<TWINT))); // twint ждем в нуле
 2e4:	06 b6       	in	r0, 0x36	; 54
 2e6:	07 fe       	sbrs	r0, 7
 2e8:	fd cf       	rjmp	.-6      	; 0x2e4 <i2c_read_lastbyte+0x4>
	return TWDR;
 2ea:	83 b1       	in	r24, 0x03	; 3

}
 2ec:	08 95       	ret

Disassembly of section .text.lcd_print_number:

000001e4 <lcd_print_number>:
unsigned char BinDec(unsigned char chin) // двоичный в десятичный
{
	unsigned char chout = ((chin / 10)<<4)|(chin % 10);
	
	return chout;
}
 1e4:	cf 93       	push	r28
 1e6:	df 93       	push	r29
 1e8:	d8 2f       	mov	r29, r24
 1ea:	cd ec       	ldi	r28, 0xCD	; 205
 1ec:	8c 9f       	mul	r24, r28
 1ee:	c1 2d       	mov	r28, r1
 1f0:	11 24       	eor	r1, r1
 1f2:	c6 95       	lsr	r28
 1f4:	c6 95       	lsr	r28
 1f6:	c6 95       	lsr	r28
 1f8:	80 e3       	ldi	r24, 0x30	; 48
 1fa:	8c 0f       	add	r24, r28
 1fc:	0e 94 4f 01 	call	0x29e	; 0x29e <sendchar>
 200:	cc 0f       	add	r28, r28
 202:	8c 2f       	mov	r24, r28
 204:	88 0f       	add	r24, r24
 206:	88 0f       	add	r24, r24
 208:	c8 0f       	add	r28, r24
 20a:	8d 2f       	mov	r24, r29
 20c:	8c 1b       	sub	r24, r28
 20e:	80 5d       	subi	r24, 0xD0	; 208
 210:	0e 94 4f 01 	call	0x29e	; 0x29e <sendchar>
 214:	df 91       	pop	r29
 216:	cf 91       	pop	r28
 218:	08 95       	ret

Disassembly of section .text.main:

000000ae <main>:
  ae:	0e 94 82 01 	call	0x304	; 0x304 <i2c_init>
  b2:	0e 94 7d 01 	call	0x2fa	; 0x2fa <iniport>
  b6:	0e 94 a9 00 	call	0x152	; 0x152 <LCD_ini>
  ba:	60 e0       	ldi	r22, 0x00	; 0
  bc:	70 e0       	ldi	r23, 0x00	; 0
  be:	80 e0       	ldi	r24, 0x00	; 0
  c0:	0e 94 59 01 	call	0x2b2	; 0x2b2 <setpos>
  c4:	0e 94 77 01 	call	0x2ee	; 0x2ee <i2c_start>
  c8:	80 ed       	ldi	r24, 0xD0	; 208
  ca:	0e 94 62 01 	call	0x2c4	; 0x2c4 <i2c_send>
  ce:	80 e0       	ldi	r24, 0x00	; 0
  d0:	0e 94 62 01 	call	0x2c4	; 0x2c4 <i2c_send>
  d4:	0e 94 85 01 	call	0x30a	; 0x30a <i2c_stop>
  d8:	0e 94 77 01 	call	0x2ee	; 0x2ee <i2c_start>
  dc:	81 ed       	ldi	r24, 0xD1	; 209
  de:	0e 94 62 01 	call	0x2c4	; 0x2c4 <i2c_send>
  e2:	0e 94 69 01 	call	0x2d2	; 0x2d2 <i2c_read>
  e6:	80 93 62 00 	sts	0x0062, r24	; 0x800062 <sec>
  ea:	0e 94 69 01 	call	0x2d2	; 0x2d2 <i2c_read>
  ee:	80 93 61 00 	sts	0x0061, r24	; 0x800061 <min>
  f2:	0e 94 70 01 	call	0x2e0	; 0x2e0 <i2c_read_lastbyte>
  f6:	80 93 60 00 	sts	0x0060, r24	; 0x800060 <_edata>
  fa:	0e 94 85 01 	call	0x30a	; 0x30a <i2c_stop>
  fe:	80 91 62 00 	lds	r24, 0x0062	; 0x800062 <sec>
 102:	0e 94 39 01 	call	0x272	; 0x272 <DecBin>
 106:	80 93 62 00 	sts	0x0062, r24	; 0x800062 <sec>
 10a:	80 91 61 00 	lds	r24, 0x0061	; 0x800061 <min>
 10e:	0e 94 39 01 	call	0x272	; 0x272 <DecBin>
 112:	80 93 61 00 	sts	0x0061, r24	; 0x800061 <min>
 116:	80 91 60 00 	lds	r24, 0x0060	; 0x800060 <_edata>
 11a:	0e 94 39 01 	call	0x272	; 0x272 <DecBin>
 11e:	80 93 60 00 	sts	0x0060, r24	; 0x800060 <_edata>
 122:	60 e0       	ldi	r22, 0x00	; 0
 124:	70 e0       	ldi	r23, 0x00	; 0
 126:	80 e0       	ldi	r24, 0x00	; 0
 128:	0e 94 59 01 	call	0x2b2	; 0x2b2 <setpos>
 12c:	80 91 60 00 	lds	r24, 0x0060	; 0x800060 <_edata>
 130:	0e 94 f2 00 	call	0x1e4	; 0x1e4 <lcd_print_number>
 134:	8a e3       	ldi	r24, 0x3A	; 58
 136:	0e 94 4f 01 	call	0x29e	; 0x29e <sendchar>
 13a:	80 91 61 00 	lds	r24, 0x0061	; 0x800061 <min>
 13e:	0e 94 f2 00 	call	0x1e4	; 0x1e4 <lcd_print_number>
 142:	8a e3       	ldi	r24, 0x3A	; 58
 144:	0e 94 4f 01 	call	0x29e	; 0x29e <sendchar>
 148:	80 91 62 00 	lds	r24, 0x0062	; 0x800062 <sec>
 14c:	0e 94 f2 00 	call	0x1e4	; 0x1e4 <lcd_print_number>
 150:	b9 cf       	rjmp	.-142    	; 0xc4 <main+0x16>

Disassembly of section .text.__dummy_fini:

00000318 <_fini>:
 318:	08 95       	ret

Disassembly of section .text.__dummy_funcs_on_exit:

0000031a <__funcs_on_exit>:
 31a:	08 95       	ret

Disassembly of section .text.__dummy_simulator_exit:

0000031c <__simulator_exit>:
 31c:	08 95       	ret

Disassembly of section .text.exit:

00000288 <exit>:
 288:	ec 01       	movw	r28, r24
 28a:	0e 94 8d 01 	call	0x31a	; 0x31a <__funcs_on_exit>
 28e:	0e 94 8c 01 	call	0x318	; 0x318 <_fini>
 292:	ce 01       	movw	r24, r28
 294:	0e 94 8e 01 	call	0x31c	; 0x31c <__simulator_exit>
 298:	ce 01       	movw	r24, r28
 29a:	0e 94 8a 01 	call	0x314	; 0x314 <_Exit>

Disassembly of section .text._Exit:

00000314 <_Exit>:
 314:	0e 94 55 00 	call	0xaa	; 0xaa <_exit>
